; Function Attrs: null_pointer_is_valid sspstrong uwtable
define internal i32 @dissect_btgatt_microbit_microbit_requirements(ptr noundef %0, ptr readnone captures(none) %1, ptr noundef %2, ptr noundef readonly captures(none) %3) #1 {
  %5 = getelementptr inbounds nuw i8, ptr %3, i64 8
  %6 = load i8, ptr %5, align 8
  %.fr6 = freeze i8 %6
  %7 = and i8 %.fr6, -7
  %switch.selectcmp.i.i = icmp eq i8 %7, 8
  br i1 %switch.selectcmp.i.i, label %13, label %switch.early.test

switch.early.test:                                ; preds = %4
  switch i8 %.fr6, label %8 [
    i8 30, label %13
    i8 19, label %13
  ]

8:                                                ; preds = %switch.early.test
  %9 = load i32, ptr @hf_gatt_microbit_microbit_requirements, align 4
  %10 = tail call i32 @tvb_captured_length(ptr noundef %0)
  %11 = tail call ptr @proto_tree_add_item(ptr noundef %2, i32 noundef %9, ptr noundef %0, i32 noundef 0, i32 noundef %10, i32 noundef 0)
  %12 = tail call i32 @tvb_captured_length(ptr noundef %0)
  br label %13

13:                                               ; preds = %switch.early.test, %switch.early.test, %4, %8
  %.0 = phi i32 [ %12, %8 ], [ -1, %switch.early.test ], [ -1, %4 ], [ -1, %switch.early.test ]
  ret i32 %.0
}